; ModuleID = '4/2201.c'
source_filename = "4/2201.c"
target datalayout = "e-m:e-p270:32:32-p271:32:32-p272:64:64-i64:64-f80:128-n8:16:32:64-S128"
target triple = "x86_64-pc-linux-gnu"

@.str = private unnamed_addr constant [5 x i8] c"%d%d\00", align 1
@.str.1 = private unnamed_addr constant [3 x i8] c"%d\00", align 1
@.str.2 = private unnamed_addr constant [4 x i8] c"%d\0A\00", align 1

; Function Attrs: noinline nounwind uwtable
define dso_local i32 @main() #0 {
  %1 = alloca i32, align 4
  %2 = alloca i32, align 4
  %3 = alloca i32, align 4
  %4 = alloca i32, align 4
  %5 = alloca i32, align 4
  %6 = alloca i32, align 4
  %7 = alloca [100 x [100 x i32]], align 16
  store i32 0, i32* %1, align 4
  %8 = call i32 (i8*, ...) @__isoc99_scanf(i8* getelementptr inbounds ([5 x i8], [5 x i8]* @.str, i64 0, i64 0), i32* %2, i32* %3)
  store i32 0, i32* %4, align 4
  br label %9

9:                                                ; preds = %30, %0
  %10 = load i32, i32* %4, align 4
  %11 = load i32, i32* %2, align 4
  %12 = icmp slt i32 %10, %11
  br i1 %12, label %13, label %33

13:                                               ; preds = %9
  store i32 0, i32* %5, align 4
  br label %14

14:                                               ; preds = %26, %13
  %15 = load i32, i32* %5, align 4
  %16 = load i32, i32* %3, align 4
  %17 = icmp slt i32 %15, %16
  br i1 %17, label %18, label %29

18:                                               ; preds = %14
  %19 = load i32, i32* %4, align 4
  %20 = sext i32 %19 to i64
  %21 = getelementptr inbounds [100 x [100 x i32]], [100 x [100 x i32]]* %7, i64 0, i64 %20
  %22 = load i32, i32* %5, align 4
  %23 = sext i32 %22 to i64
  %24 = getelementptr inbounds [100 x i32], [100 x i32]* %21, i64 0, i64 %23
  %25 = call i32 (i8*, ...) @__isoc99_scanf(i8* getelementptr inbounds ([3 x i8], [3 x i8]* @.str.1, i64 0, i64 0), i32* %24)
  br label %26

26:                                               ; preds = %18
  %27 = load i32, i32* %5, align 4
  %28 = add nsw i32 %27, 1
  store i32 %28, i32* %5, align 4
  br label %14

29:                                               ; preds = %14
  br label %30

30:                                               ; preds = %29
  %31 = load i32, i32* %4, align 4
  %32 = add nsw i32 %31, 1
  store i32 %32, i32* %4, align 4
  br label %9

33:                                               ; preds = %9
  store i32 0, i32* %5, align 4
  br label %34

34:                                               ; preds = %64, %33
  %35 = load i32, i32* %5, align 4
  %36 = load i32, i32* %3, align 4
  %37 = icmp slt i32 %35, %36
  br i1 %37, label %38, label %67

38:                                               ; preds = %34
  store i32 0, i32* %4, align 4
  br label %39

39:                                               ; preds = %60, %38
  %40 = load i32, i32* %4, align 4
  %41 = load i32, i32* %5, align 4
  %42 = icmp sle i32 %40, %41
  br i1 %42, label %43, label %47

43:                                               ; preds = %39
  %44 = load i32, i32* %4, align 4
  %45 = load i32, i32* %2, align 4
  %46 = icmp slt i32 %44, %45
  br label %47

47:                                               ; preds = %43, %39
  %48 = phi i1 [ false, %39 ], [ %46, %43 ]
  br i1 %48, label %49, label %63

49:                                               ; preds = %47
  %50 = load i32, i32* %4, align 4
  %51 = sext i32 %50 to i64
  %52 = getelementptr inbounds [100 x [100 x i32]], [100 x [100 x i32]]* %7, i64 0, i64 %51
  %53 = load i32, i32* %5, align 4
  %54 = load i32, i32* %4, align 4
  %55 = sub nsw i32 %53, %54
  %56 = sext i32 %55 to i64
  %57 = getelementptr inbounds [100 x i32], [100 x i32]* %52, i64 0, i64 %56
  %58 = load i32, i32* %57, align 4
  %59 = call i32 (i8*, ...) @printf(i8* getelementptr inbounds ([4 x i8], [4 x i8]* @.str.2, i64 0, i64 0), i32 %58)
  br label %60

60:                                               ; preds = %49
  %61 = load i32, i32* %4, align 4
  %62 = add nsw i32 %61, 1
  store i32 %62, i32* %4, align 4
  br label %39

63:                                               ; preds = %47
  br label %64

64:                                               ; preds = %63
  %65 = load i32, i32* %5, align 4
  %66 = add nsw i32 %65, 1
  store i32 %66, i32* %5, align 4
  br label %34

67:                                               ; preds = %34
  store i32 1, i32* %4, align 4
  br label %68

68:                                               ; preds = %100, %67
  %69 = load i32, i32* %4, align 4
  %70 = load i32, i32* %2, align 4
  %71 = icmp slt i32 %69, %70
  br i1 %71, label %72, label %103

72:                                               ; preds = %68
  %73 = load i32, i32* %4, align 4
  store i32 %73, i32* %6, align 4
  %74 = load i32, i32* %3, align 4
  %75 = sub nsw i32 %74, 1
  store i32 %75, i32* %5, align 4
  br label %76

76:                                               ; preds = %96, %72
  %77 = load i32, i32* %5, align 4
  %78 = icmp sge i32 %77, 0
  br i1 %78, label %79, label %83

79:                                               ; preds = %76
  %80 = load i32, i32* %6, align 4
  %81 = load i32, i32* %2, align 4
  %82 = icmp slt i32 %80, %81
  br label %83

83:                                               ; preds = %79, %76
  %84 = phi i1 [ false, %76 ], [ %82, %79 ]
  br i1 %84, label %85, label %99

85:                                               ; preds = %83
  %86 = load i32, i32* %6, align 4
  %87 = sext i32 %86 to i64
  %88 = getelementptr inbounds [100 x [100 x i32]], [100 x [100 x i32]]* %7, i64 0, i64 %87
  %89 = load i32, i32* %5, align 4
  %90 = sext i32 %89 to i64
  %91 = getelementptr inbounds [100 x i32], [100 x i32]* %88, i64 0, i64 %90
  %92 = load i32, i32* %91, align 4
  %93 = call i32 (i8*, ...) @printf(i8* getelementptr inbounds ([4 x i8], [4 x i8]* @.str.2, i64 0, i64 0), i32 %92)
  %94 = load i32, i32* %6, align 4
  %95 = add nsw i32 %94, 1
  store i32 %95, i32* %6, align 4
  br label %96

96:                                               ; preds = %85
  %97 = load i32, i32* %5, align 4
  %98 = add nsw i32 %97, -1
  store i32 %98, i32* %5, align 4
  br label %76

99:                                               ; preds = %83
  br label %100

100:                                              ; preds = %99
  %101 = load i32, i32* %4, align 4
  %102 = add nsw i32 %101, 1
  store i32 %102, i32* %4, align 4
  br label %68

103:                                              ; preds = %68
  ret i32 0
}

declare dso_local i32 @__isoc99_scanf(i8*, ...) #1

declare dso_local i32 @printf(i8*, ...) #1


!llvm.module.flags = !{!0}
!llvm.ident = !{!1}

!0 = !{i32 1, !"wchar_size", i32 4}
!1 = !{!"clang version 10.0.0-4ubuntu1 "}
